; Function Attrs: nounwind uwtable
define noalias nonnull ptr @l_Lean_IR_IsLive_visitVar(ptr noundef %0, ptr noundef %1, ptr noundef %2) local_unnamed_addr #0 {
  %4 = ptrtoint ptr %0 to i64
  %5 = ptrtoint ptr %1 to i64
  %6 = and i64 %4, 1
  %7 = and i64 %6, %5
  %or.cond.not = icmp eq i64 %7, 0
  br i1 %or.cond.not, label %.critedge.i, label %8, !prof !4

8:                                                ; preds = %3
  %9 = icmp eq ptr %0, %1
  br label %lean_nat_eq.exit

.critedge.i:                                      ; preds = %3
  %10 = tail call zeroext i1 @lean_nat_big_eq(ptr noundef %0, ptr noundef %1) #4
  br label %lean_nat_eq.exit

lean_nat_eq.exit:                                 ; preds = %8, %.critedge.i
  %.0.i = phi i1 [ %9, %8 ], [ %10, %.critedge.i ]
  tail call void @lean_inc_heartbeat() #4
  %11 = tail call noalias ptr @mi_malloc_small(i64 noundef 24) #4
  %12 = icmp eq ptr %11, null
  br i1 %12, label %13, label %lean_alloc_ctor.exit

13:                                               ; preds = %lean_nat_eq.exit
  tail call void @lean_internal_panic_out_of_memory() #5
  unreachable

lean_alloc_ctor.exit:                             ; preds = %lean_nat_eq.exit
  %14 = select i1 %.0.i, ptr inttoptr (i64 3 to ptr), ptr inttoptr (i64 1 to ptr)
  %15 = getelementptr inbounds nuw i8, ptr %11, i64 4
  store i32 1, ptr %11, align 4, !tbaa !5
  store i32 131096, ptr %15, align 4
  %16 = getelementptr inbounds nuw i8, ptr %11, i64 8
  store ptr %14, ptr %16, align 8, !tbaa !10
  %17 = getelementptr inbounds nuw i8, ptr %11, i64 16
  store ptr %2, ptr %17, align 8, !tbaa !10
  ret ptr %11
}